target datalayout = "e-m:e-p270:32:32-p271:32:32-p272:64:64-i64:64-i128:128-f80:128-n8:16:32:64-S128"
target triple = "x86_64-pc-linux-gnu"

%struct.SDL_Palette = type { i32, ptr, i32, i32 }

; Function Attrs: nounwind uwtable
define hidden void @SDL_DestroyPalette_REAL(ptr noundef %0) #0 {
  %2 = alloca ptr, align 8
  store ptr %0, ptr %2, align 8
  %3 = load ptr, ptr %2, align 8
  %4 = icmp ne ptr %3, null
  br i1 %4, label %6, label %5

5:                                                ; preds = %1
  br label %18

6:                                                ; preds = %1
  %7 = load ptr, ptr %2, align 8
  %8 = getelementptr inbounds nuw %struct.SDL_Palette, ptr %7, i32 0, i32 3
  %9 = load i32, ptr %8, align 4
  %10 = add nsw i32 %9, -1
  store i32 %10, ptr %8, align 4
  %11 = icmp sgt i32 %10, 0
  br i1 %11, label %12, label %13

12:                                               ; preds = %6
  br label %18

13:                                               ; preds = %6
  %14 = load ptr, ptr %2, align 8
  %15 = getelementptr inbounds nuw %struct.SDL_Palette, ptr %14, i32 0, i32 1
  %16 = load ptr, ptr %15, align 8
  call void @SDL_free_REAL(ptr noundef %16)
  %17 = load ptr, ptr %2, align 8
  call void @SDL_free_REAL(ptr noundef %17)
  br label %18

18:                                               ; preds = %13, %12, %5
  ret void
}