; Function Attrs: nounwind uwtable
define hidden void @SDL_DestroyPalette_REAL(ptr noundef %0) local_unnamed_addr #1 {
  %.not = icmp eq ptr %0, null
  br i1 %.not, label %10, label %2

2:                                                ; preds = %1
  %3 = getelementptr inbounds nuw i8, ptr %0, i64 20
  %4 = load i32, ptr %3, align 4
  %5 = add nsw i32 %4, -1
  store i32 %5, ptr %3, align 4
  %6 = icmp sgt i32 %4, 1
  br i1 %6, label %10, label %7

7:                                                ; preds = %2
  %8 = getelementptr inbounds nuw i8, ptr %0, i64 8
  %9 = load ptr, ptr %8, align 8
  tail call void @SDL_free_REAL(ptr noundef %9) #15
  tail call void @SDL_free_REAL(ptr noundef nonnull %0) #15
  br label %10

10:                                               ; preds = %2, %1, %7
  ret void
}